target datalayout = "e-m:e-p270:32:32-p271:32:32-p272:64:64-i64:64-i128:128-f80:128-n8:16:32:64-S128"
target triple = "x86_64-pc-linux-gnu"

; Function Attrs: inlinehint nounwind uwtable
define internal i64 @_mi_align_up(i64 noundef %0, i64 noundef %1) #2 {
  %3 = alloca i64, align 8
  %4 = alloca i64, align 8
  %5 = alloca i64, align 8
  %6 = alloca i64, align 8
  %7 = alloca i32, align 4
  store i64 %0, ptr %4, align 8, !tbaa !7
  store i64 %1, ptr %5, align 8, !tbaa !7
  call void @llvm.lifetime.start.p0(i64 8, ptr %6) #9
  %8 = load i64, ptr %5, align 8, !tbaa !7
  %9 = sub i64 %8, 1
  store i64 %9, ptr %6, align 8, !tbaa !7
  %10 = load i64, ptr %5, align 8, !tbaa !7
  %11 = load i64, ptr %6, align 8, !tbaa !7
  %12 = and i64 %10, %11
  %13 = icmp eq i64 %12, 0
  br i1 %13, label %14, label %21

14:                                               ; preds = %2
  %15 = load i64, ptr %4, align 8, !tbaa !7
  %16 = load i64, ptr %6, align 8, !tbaa !7
  %17 = add i64 %15, %16
  %18 = load i64, ptr %6, align 8, !tbaa !7
  %19 = xor i64 %18, -1
  %20 = and i64 %17, %19
  store i64 %20, ptr %3, align 8
  store i32 1, ptr %7, align 4
  br label %29

21:                                               ; preds = %2
  %22 = load i64, ptr %4, align 8, !tbaa !7
  %23 = load i64, ptr %6, align 8, !tbaa !7
  %24 = add i64 %22, %23
  %25 = load i64, ptr %5, align 8, !tbaa !7
  %26 = udiv i64 %24, %25
  %27 = load i64, ptr %5, align 8, !tbaa !7
  %28 = mul i64 %26, %27
  store i64 %28, ptr %3, align 8
  store i32 1, ptr %7, align 4
  br label %29

29:                                               ; preds = %21, %14
  call void @llvm.lifetime.end.p0(i64 8, ptr %6) #9
  %30 = load i64, ptr %3, align 8
  ret i64 %30
}

; Function Attrs: nounwind uwtable
define hidden noalias ptr @mi_pvalloc(i64 noundef %0) #0 {
  %2 = alloca ptr, align 8
  %3 = alloca i64, align 8
  %4 = alloca i64, align 8
  %5 = alloca i32, align 4
  %6 = alloca i64, align 8
  store i64 %0, ptr %3, align 8, !tbaa !7
  call void @llvm.lifetime.start.p0(i64 8, ptr %4) #9
  %7 = call i64 @_mi_os_page_size() #8
  store i64 %7, ptr %4, align 8, !tbaa !7
  %8 = load i64, ptr %3, align 8, !tbaa !7
  %9 = load i64, ptr %4, align 8, !tbaa !7
  %10 = sub i64 -1, %9
  %11 = icmp uge i64 %8, %10
  br i1 %11, label %12, label %13

12:                                               ; preds = %1
  store ptr null, ptr %2, align 8
  store i32 1, ptr %5, align 4
  br label %20

13:                                               ; preds = %1
  call void @llvm.lifetime.start.p0(i64 8, ptr %6) #9
  %14 = load i64, ptr %3, align 8, !tbaa !7
  %15 = load i64, ptr %4, align 8, !tbaa !7
  %16 = call i64 @_mi_align_up(i64 noundef %14, i64 noundef %15) #8
  store i64 %16, ptr %6, align 8, !tbaa !7
  %17 = load i64, ptr %6, align 8, !tbaa !7
  %18 = load i64, ptr %4, align 8, !tbaa !7
  %19 = call noalias ptr @mi_malloc_aligned(i64 noundef %17, i64 noundef %18) #8
  store ptr %19, ptr %2, align 8
  store i32 1, ptr %5, align 4
  call void @llvm.lifetime.end.p0(i64 8, ptr %6) #9
  br label %20

20:                                               ; preds = %13, %12
  call void @llvm.lifetime.end.p0(i64 8, ptr %4) #9
  %21 = load ptr, ptr %2, align 8
  ret ptr %21
}