; Function Attrs: nounwind uwtable
define hidden noalias ptr @mi_pvalloc(i64 noundef %0) local_unnamed_addr #0 {
  %2 = tail call i64 @_mi_os_page_size() #7
  %3 = xor i64 %2, -1
  %.not = icmp ult i64 %0, %3
  br i1 %.not, label %4, label %16

4:                                                ; preds = %1
  %5 = tail call range(i64 0, 65) i64 @llvm.ctpop.i64(i64 %2)
  %6 = icmp samesign ult i64 %5, 2
  %7 = add i64 %0, -1
  %8 = add i64 %7, %2
  br i1 %6, label %9, label %12

9:                                                ; preds = %4
  %10 = sub i64 0, %2
  %11 = and i64 %8, %10
  br label %_mi_align_up.exit

12:                                               ; preds = %4
  %13 = urem i64 %8, %2
  %14 = sub nuw i64 %8, %13
  br label %_mi_align_up.exit

_mi_align_up.exit:                                ; preds = %9, %12
  %.0.i = phi i64 [ %11, %9 ], [ %14, %12 ]
  %15 = tail call noalias ptr @mi_malloc_aligned(i64 noundef %.0.i, i64 noundef %2) #7
  br label %16

16:                                               ; preds = %1, %_mi_align_up.exit
  %.0 = phi ptr [ %15, %_mi_align_up.exit ], [ null, %1 ]
  ret ptr %.0
}